; ModuleID = '28/703.c'
source_filename = "28/703.c"
target datalayout = "e-m:e-p270:32:32-p271:32:32-p272:64:64-i64:64-f80:128-n8:16:32:64-S128"
target triple = "x86_64-pc-linux-gnu"

@.str = private unnamed_addr constant [3 x i8] c"%d\00", align 1
@.str.1 = private unnamed_addr constant [4 x i8] c",%d\00", align 1

; Function Attrs: noinline nounwind uwtable
define dso_local void @main() #0 {
  %1 = alloca [1024 x i8], align 16
  %2 = alloca i32, align 4
  %3 = alloca i32, align 4
  %4 = alloca [300 x i32], align 16
  %5 = alloca i32, align 4
  store i32 0, i32* %5, align 4
  %6 = getelementptr inbounds [1024 x i8], [1024 x i8]* %1, i64 0, i64 0
  %7 = call i32 (i8*, ...) bitcast (i32 (...)* @gets to i32 (i8*, ...)*)(i8* %6)
  store i32 0, i32* %2, align 4
  br label %8

8:                                                ; preds = %15, %0
  %9 = load i32, i32* %2, align 4
  %10 = icmp slt i32 %9, 300
  br i1 %10, label %11, label %18

11:                                               ; preds = %8
  %12 = load i32, i32* %2, align 4
  %13 = sext i32 %12 to i64
  %14 = getelementptr inbounds [300 x i32], [300 x i32]* %4, i64 0, i64 %13
  store i32 0, i32* %14, align 4
  br label %15

15:                                               ; preds = %11
  %16 = load i32, i32* %2, align 4
  %17 = add nsw i32 %16, 1
  store i32 %17, i32* %2, align 4
  br label %8

18:                                               ; preds = %8
  store i32 0, i32* %2, align 4
  br label %19

19:                                               ; preds = %75, %18
  %20 = load i32, i32* %2, align 4
  %21 = sext i32 %20 to i64
  %22 = getelementptr inbounds [1024 x i8], [1024 x i8]* %1, i64 0, i64 0
  %23 = call i64 @strlen(i8* %22) #3
  %24 = icmp ult i64 %21, %23
  br i1 %24, label %25, label %78

25:                                               ; preds = %19
  %26 = load i32, i32* %2, align 4
  %27 = sext i32 %26 to i64
  %28 = getelementptr inbounds [1024 x i8], [1024 x i8]* %1, i64 0, i64 %27
  %29 = load i8, i8* %28, align 1
  %30 = sext i8 %29 to i32
  %31 = icmp ne i32 %30, 32
  br i1 %31, label %32, label %38

32:                                               ; preds = %25
  %33 = load i32, i32* %5, align 4
  %34 = sext i32 %33 to i64
  %35 = getelementptr inbounds [300 x i32], [300 x i32]* %4, i64 0, i64 %34
  %36 = load i32, i32* %35, align 4
  %37 = add nsw i32 %36, 1
  store i32 %37, i32* %35, align 4
  br label %38

38:                                               ; preds = %32, %25
  %39 = load i32, i32* %2, align 4
  %40 = sext i32 %39 to i64
  %41 = getelementptr inbounds [1024 x i8], [1024 x i8]* %1, i64 0, i64 %40
  %42 = load i8, i8* %41, align 1
  %43 = sext i8 %42 to i32
  %44 = icmp eq i32 %43, 32
  br i1 %44, label %53, label %45

45:                                               ; preds = %38
  %46 = load i32, i32* %2, align 4
  %47 = add nsw i32 %46, 1
  %48 = sext i32 %47 to i64
  %49 = getelementptr inbounds [1024 x i8], [1024 x i8]* %1, i64 0, i64 %48
  %50 = load i8, i8* %49, align 1
  %51 = sext i8 %50 to i32
  %52 = icmp eq i32 %51, 0
  br i1 %52, label %53, label %74

53:                                               ; preds = %45, %38
  %54 = load i32, i32* %2, align 4
  %55 = sub nsw i32 %54, 1
  %56 = sext i32 %55 to i64
  %57 = getelementptr inbounds [1024 x i8], [1024 x i8]* %1, i64 0, i64 %56
  %58 = load i8, i8* %57, align 1
  %59 = sext i8 %58 to i32
  %60 = icmp eq i32 %59, 32
  br i1 %60, label %61, label %62

61:                                               ; preds = %53
  br label %75

62:                                               ; preds = %53
  %63 = load i32, i32* %2, align 4
  %64 = sub nsw i32 %63, 1
  %65 = sext i32 %64 to i64
  %66 = getelementptr inbounds [1024 x i8], [1024 x i8]* %1, i64 0, i64 %65
  %67 = load i8, i8* %66, align 1
  %68 = sext i8 %67 to i32
  %69 = icmp ne i32 %68, 32
  br i1 %69, label %70, label %73

70:                                               ; preds = %62
  %71 = load i32, i32* %5, align 4
  %72 = add nsw i32 %71, 1
  store i32 %72, i32* %5, align 4
  br label %73

73:                                               ; preds = %70, %62
  br label %74

74:                                               ; preds = %73, %45
  br label %75

75:                                               ; preds = %74, %61
  %76 = load i32, i32* %2, align 4
  %77 = add nsw i32 %76, 1
  store i32 %77, i32* %2, align 4
  br label %19

78:                                               ; preds = %19
  %79 = getelementptr inbounds [300 x i32], [300 x i32]* %4, i64 0, i64 0
  %80 = load i32, i32* %79, align 16
  %81 = call i32 (i8*, ...) @printf(i8* getelementptr inbounds ([3 x i8], [3 x i8]* @.str, i64 0, i64 0), i32 %80)
  store i32 1, i32* %2, align 4
  br label %82

82:                                               ; preds = %92, %78
  %83 = load i32, i32* %2, align 4
  %84 = load i32, i32* %5, align 4
  %85 = icmp slt i32 %83, %84
  br i1 %85, label %86, label %95

86:                                               ; preds = %82
  %87 = load i32, i32* %2, align 4
  %88 = sext i32 %87 to i64
  %89 = getelementptr inbounds [300 x i32], [300 x i32]* %4, i64 0, i64 %88
  %90 = load i32, i32* %89, align 4
  %91 = call i32 (i8*, ...) @printf(i8* getelementptr inbounds ([4 x i8], [4 x i8]* @.str.1, i64 0, i64 0), i32 %90)
  br label %92

92:                                               ; preds = %86
  %93 = load i32, i32* %2, align 4
  %94 = add nsw i32 %93, 1
  store i32 %94, i32* %2, align 4
  br label %82

95:                                               ; preds = %82
  ret void
}

declare dso_local i32 @gets(...) #1

; Function Attrs: nounwind readonly
declare dso_local i64 @strlen(i8*) #2

declare dso_local i32 @printf(i8*, ...) #1


!llvm.module.flags = !{!0}
!llvm.ident = !{!1}

!0 = !{i32 1, !"wchar_size", i32 4}
!1 = !{!"clang version 10.0.0-4ubuntu1 "}
