; ModuleID = 'source-C-CXX/27/703.c'
source_filename = "source-C-CXX/27/703.c"
target datalayout = "e-m:e-p270:32:32-p271:32:32-p272:64:64-i64:64-f80:128-n8:16:32:64-S128"
target triple = "x86_64-pc-linux-gnu"

@.str = private unnamed_addr constant [3 x i8] c"%d\00", align 1
@.str.1 = private unnamed_addr constant [4 x i8] c",%d\00", align 1

; Function Attrs: nounwind sspstrong uwtable
define dso_local void @main() local_unnamed_addr #0 {
  %1 = alloca [1024 x i8], align 16
  %2 = alloca [300 x i32], align 16
  %3 = bitcast [300 x i32]* %2 to i8*
  %4 = getelementptr inbounds [1024 x i8], [1024 x i8]* %1, i64 0, i64 0
  call void @llvm.lifetime.start.p0i8(i64 1024, i8* nonnull %4) #6
  call void @llvm.lifetime.start.p0i8(i64 1200, i8* nonnull %3) #6
  %5 = call i32 (i8*, ...) bitcast (i32 (...)* @gets to i32 (i8*, ...)*)(i8* nonnull %4) #6
  call void @llvm.memset.p0i8.i64(i8* noundef nonnull align 16 dereferenceable(1200) %3, i8 0, i64 1200, i1 false)
  %6 = call i64 @strlen(i8* noundef nonnull %4) #7
  %7 = icmp eq i64 %6, 0
  br i1 %7, label %8, label %10

8:                                                ; preds = %0
  %9 = call i32 (i8*, ...) @printf(i8* nonnull dereferenceable(1) getelementptr inbounds ([3 x i8], [3 x i8]* @.str, i64 0, i64 0), i32 0)
  br label %53

10:                                               ; preds = %0, %35
  %11 = phi i64 [ %36, %35 ], [ 0, %0 ]
  %12 = phi i32 [ %37, %35 ], [ 0, %0 ]
  %13 = getelementptr inbounds [1024 x i8], [1024 x i8]* %1, i64 0, i64 %11
  %14 = load i8, i8* %13, align 1, !tbaa !5
  %15 = icmp eq i8 %14, 32
  br i1 %15, label %16, label %18

16:                                               ; preds = %10
  %17 = add nuw nsw i64 %11, 1
  br label %27

18:                                               ; preds = %10
  %19 = sext i32 %12 to i64
  %20 = getelementptr inbounds [300 x i32], [300 x i32]* %2, i64 0, i64 %19
  %21 = load i32, i32* %20, align 4, !tbaa !8
  %22 = add nsw i32 %21, 1
  store i32 %22, i32* %20, align 4, !tbaa !8
  %23 = add nuw nsw i64 %11, 1
  %24 = getelementptr inbounds [1024 x i8], [1024 x i8]* %1, i64 0, i64 %23
  %25 = load i8, i8* %24, align 1, !tbaa !5
  %26 = icmp eq i8 %25, 0
  br i1 %26, label %27, label %35

27:                                               ; preds = %16, %18
  %28 = phi i64 [ %17, %16 ], [ %23, %18 ]
  %29 = add nsw i64 %11, -1
  %30 = getelementptr inbounds [1024 x i8], [1024 x i8]* %1, i64 0, i64 %29
  %31 = load i8, i8* %30, align 1, !tbaa !5
  %32 = icmp ne i8 %31, 32
  %33 = zext i1 %32 to i32
  %34 = add nsw i32 %12, %33
  br label %35

35:                                               ; preds = %27, %18
  %36 = phi i64 [ %28, %27 ], [ %23, %18 ]
  %37 = phi i32 [ %34, %27 ], [ %12, %18 ]
  %38 = icmp eq i64 %36, %6
  br i1 %38, label %39, label %10, !llvm.loop !10

39:                                               ; preds = %35
  %40 = getelementptr inbounds [300 x i32], [300 x i32]* %2, i64 0, i64 0
  %41 = load i32, i32* %40, align 16, !tbaa !8
  %42 = call i32 (i8*, ...) @printf(i8* nonnull dereferenceable(1) getelementptr inbounds ([3 x i8], [3 x i8]* @.str, i64 0, i64 0), i32 %41)
  %43 = icmp sgt i32 %37, 1
  br i1 %43, label %44, label %53

44:                                               ; preds = %39
  %45 = zext i32 %37 to i64
  br label %46

46:                                               ; preds = %44, %46
  %47 = phi i64 [ 1, %44 ], [ %51, %46 ]
  %48 = getelementptr inbounds [300 x i32], [300 x i32]* %2, i64 0, i64 %47
  %49 = load i32, i32* %48, align 4, !tbaa !8
  %50 = call i32 (i8*, ...) @printf(i8* nonnull dereferenceable(1) getelementptr inbounds ([4 x i8], [4 x i8]* @.str.1, i64 0, i64 0), i32 %49)
  %51 = add nuw nsw i64 %47, 1
  %52 = icmp eq i64 %51, %45
  br i1 %52, label %53, label %46, !llvm.loop !12

53:                                               ; preds = %46, %8, %39
  call void @llvm.lifetime.end.p0i8(i64 1200, i8* nonnull %3) #6
  call void @llvm.lifetime.end.p0i8(i64 1024, i8* nonnull %4) #6
  ret void
}

; Function Attrs: argmemonly mustprogress nofree nosync nounwind willreturn
declare void @llvm.lifetime.start.p0i8(i64 immarg, i8* nocapture) #1

declare i32 @gets(...) local_unnamed_addr #2

; Function Attrs: argmemonly mustprogress nofree nounwind readonly willreturn
declare i64 @strlen(i8* nocapture) local_unnamed_addr #3

; Function Attrs: nofree nounwind
declare noundef i32 @printf(i8* nocapture noundef readonly, ...) local_unnamed_addr #4

; Function Attrs: argmemonly mustprogress nofree nosync nounwind willreturn
declare void @llvm.lifetime.end.p0i8(i64 immarg, i8* nocapture) #1

; Function Attrs: argmemonly nofree nounwind willreturn writeonly
declare void @llvm.memset.p0i8.i64(i8* nocapture writeonly, i8, i64, i1 immarg) #5


!llvm.module.flags = !{!0, !1, !2, !3}
!llvm.ident = !{!4}

!0 = !{i32 1, !"wchar_size", i32 4}
!1 = !{i32 7, !"PIC Level", i32 2}
!2 = !{i32 7, !"PIE Level", i32 2}
!3 = !{i32 7, !"uwtable", i32 1}
!4 = !{!"clang version 13.0.0"}
!5 = !{!6, !6, i64 0}
!6 = !{!"omnipotent char", !7, i64 0}
!7 = !{!"Simple C/C++ TBAA"}
!8 = !{!9, !9, i64 0}
!9 = !{!"int", !6, i64 0}
!10 = distinct !{!10, !11}
!11 = !{!"llvm.loop.mustprogress"}
!12 = distinct !{!12, !11}
